; Function Attrs: mustprogress nofree nounwind willreturn memory(write, argmem: readwrite) uwtable
define internal { double, double } @_ZL14merc_s_forward5PJ_LPP8PJconsts(double %0, double %1, ptr noundef readonly captures(none) %2) #4 {
  %4 = getelementptr inbounds nuw i8, ptr %2, i64 488
  %5 = load double, ptr %4, align 8, !tbaa !44
  %6 = fmul double %0, %5
  %7 = tail call double @tan(double noundef %1) #6, !tbaa !43
  %8 = tail call double @asinh(double noundef %7) #6, !tbaa !43
  %9 = fmul double %5, %8
  %.fca.0.insert = insertvalue { double, double } poison, double %6, 0
  %.fca.1.insert = insertvalue { double, double } %.fca.0.insert, double %9, 1
  ret { double, double } %.fca.1.insert
}